target datalayout = "e-m:e-p270:32:32-p271:32:32-p272:64:64-i64:64-i128:128-f80:128-n8:16:32:64-S128"
target triple = "x86_64-pc-linux-gnu"

@rb_eArgError = external global i64, align 8
@id_nanosecond = internal global i64 0, align 8
@id_microsecond = internal global i64 0, align 8
@id_millisecond = internal global i64 0, align 8
@id_second = internal global i64 0, align 8
@id_float_microsecond = internal global i64 0, align 8
@id_float_millisecond = internal global i64 0, align 8
@id_float_second = internal global i64 0, align 8
@.str.256 = private unnamed_addr constant [22 x i8] c"unexpected unit: %li\0B\00", align 1

; Function Attrs: inlinehint nounwind sspstrong willreturn memory(none) uwtable
define internal zeroext i1 @RB_NIL_P(i64 noundef %0) #4 {
  %2 = alloca i64, align 8
  store i64 %0, ptr %2, align 8, !tbaa !35
  %3 = load i64, ptr %2, align 8, !tbaa !35
  %4 = icmp eq i64 %3, 4
  ret i1 %4
}

; Function Attrs: nounwind sspstrong uwtable
define internal i64 @make_clock_result(ptr noundef %0, ptr noundef %1, i32 noundef %2, ptr noundef %3, i32 noundef %4, i64 noundef %5) #0 {
  %7 = alloca i64, align 8
  %8 = alloca ptr, align 8
  %9 = alloca ptr, align 8
  %10 = alloca i32, align 4
  %11 = alloca ptr, align 8
  %12 = alloca i32, align 4
  %13 = alloca i64, align 8
  store ptr %0, ptr %8, align 8, !tbaa !292
  store ptr %1, ptr %9, align 8, !tbaa !294
  store i32 %2, ptr %10, align 4, !tbaa !34
  store ptr %3, ptr %11, align 8, !tbaa !294
  store i32 %4, ptr %12, align 4, !tbaa !34
  store i64 %5, ptr %13, align 8, !tbaa !35
  %14 = load i64, ptr %13, align 8, !tbaa !35
  %15 = load i64, ptr @id_nanosecond, align 8, !tbaa !35
  %16 = call i64 @rb_id2sym(i64 noundef %15)
  %17 = icmp eq i64 %14, %16
  br i1 %17, label %18, label %30

18:                                               ; preds = %6
  %19 = load ptr, ptr %9, align 8, !tbaa !294
  %20 = load i32, ptr %10, align 4, !tbaa !34
  %21 = add i32 %20, 1
  store i32 %21, ptr %10, align 4, !tbaa !34
  %22 = sext i32 %20 to i64
  %23 = getelementptr i64, ptr %19, i64 %22
  store i64 1000000000, ptr %23, align 8, !tbaa !203
  %24 = load ptr, ptr %8, align 8, !tbaa !292
  %25 = load ptr, ptr %9, align 8, !tbaa !294
  %26 = load i32, ptr %10, align 4, !tbaa !34
  %27 = load ptr, ptr %11, align 8, !tbaa !294
  %28 = load i32, ptr %12, align 4, !tbaa !34
  %29 = call i64 @timetick2integer(ptr noundef %24, ptr noundef %25, i32 noundef %26, ptr noundef %27, i32 noundef %28)
  store i64 %29, ptr %7, align 8
  br label %128

30:                                               ; preds = %6
  %31 = load i64, ptr %13, align 8, !tbaa !35
  %32 = load i64, ptr @id_microsecond, align 8, !tbaa !35
  %33 = call i64 @rb_id2sym(i64 noundef %32)
  %34 = icmp eq i64 %31, %33
  br i1 %34, label %35, label %47

35:                                               ; preds = %30
  %36 = load ptr, ptr %9, align 8, !tbaa !294
  %37 = load i32, ptr %10, align 4, !tbaa !34
  %38 = add i32 %37, 1
  store i32 %38, ptr %10, align 4, !tbaa !34
  %39 = sext i32 %37 to i64
  %40 = getelementptr i64, ptr %36, i64 %39
  store i64 1000000, ptr %40, align 8, !tbaa !203
  %41 = load ptr, ptr %8, align 8, !tbaa !292
  %42 = load ptr, ptr %9, align 8, !tbaa !294
  %43 = load i32, ptr %10, align 4, !tbaa !34
  %44 = load ptr, ptr %11, align 8, !tbaa !294
  %45 = load i32, ptr %12, align 4, !tbaa !34
  %46 = call i64 @timetick2integer(ptr noundef %41, ptr noundef %42, i32 noundef %43, ptr noundef %44, i32 noundef %45)
  store i64 %46, ptr %7, align 8
  br label %128

47:                                               ; preds = %30
  %48 = load i64, ptr %13, align 8, !tbaa !35
  %49 = load i64, ptr @id_millisecond, align 8, !tbaa !35
  %50 = call i64 @rb_id2sym(i64 noundef %49)
  %51 = icmp eq i64 %48, %50
  br i1 %51, label %52, label %64

52:                                               ; preds = %47
  %53 = load ptr, ptr %9, align 8, !tbaa !294
  %54 = load i32, ptr %10, align 4, !tbaa !34
  %55 = add i32 %54, 1
  store i32 %55, ptr %10, align 4, !tbaa !34
  %56 = sext i32 %54 to i64
  %57 = getelementptr i64, ptr %53, i64 %56
  store i64 1000, ptr %57, align 8, !tbaa !203
  %58 = load ptr, ptr %8, align 8, !tbaa !292
  %59 = load ptr, ptr %9, align 8, !tbaa !294
  %60 = load i32, ptr %10, align 4, !tbaa !34
  %61 = load ptr, ptr %11, align 8, !tbaa !294
  %62 = load i32, ptr %12, align 4, !tbaa !34
  %63 = call i64 @timetick2integer(ptr noundef %58, ptr noundef %59, i32 noundef %60, ptr noundef %61, i32 noundef %62)
  store i64 %63, ptr %7, align 8
  br label %128

64:                                               ; preds = %47
  %65 = load i64, ptr %13, align 8, !tbaa !35
  %66 = load i64, ptr @id_second, align 8, !tbaa !35
  %67 = call i64 @rb_id2sym(i64 noundef %66)
  %68 = icmp eq i64 %65, %67
  br i1 %68, label %69, label %76

69:                                               ; preds = %64
  %70 = load ptr, ptr %8, align 8, !tbaa !292
  %71 = load ptr, ptr %9, align 8, !tbaa !294
  %72 = load i32, ptr %10, align 4, !tbaa !34
  %73 = load ptr, ptr %11, align 8, !tbaa !294
  %74 = load i32, ptr %12, align 4, !tbaa !34
  %75 = call i64 @timetick2integer(ptr noundef %70, ptr noundef %71, i32 noundef %72, ptr noundef %73, i32 noundef %74)
  store i64 %75, ptr %7, align 8
  br label %128

76:                                               ; preds = %64
  %77 = load i64, ptr %13, align 8, !tbaa !35
  %78 = load i64, ptr @id_float_microsecond, align 8, !tbaa !35
  %79 = call i64 @rb_id2sym(i64 noundef %78)
  %80 = icmp eq i64 %77, %79
  br i1 %80, label %81, label %93

81:                                               ; preds = %76
  %82 = load ptr, ptr %9, align 8, !tbaa !294
  %83 = load i32, ptr %10, align 4, !tbaa !34
  %84 = add i32 %83, 1
  store i32 %84, ptr %10, align 4, !tbaa !34
  %85 = sext i32 %83 to i64
  %86 = getelementptr i64, ptr %82, i64 %85
  store i64 1000000, ptr %86, align 8, !tbaa !203
  %87 = load ptr, ptr %8, align 8, !tbaa !292
  %88 = load ptr, ptr %9, align 8, !tbaa !294
  %89 = load i32, ptr %10, align 4, !tbaa !34
  %90 = load ptr, ptr %11, align 8, !tbaa !294
  %91 = load i32, ptr %12, align 4, !tbaa !34
  %92 = call i64 @timetick2dblnum(ptr noundef %87, ptr noundef %88, i32 noundef %89, ptr noundef %90, i32 noundef %91)
  store i64 %92, ptr %7, align 8
  br label %128

93:                                               ; preds = %76
  %94 = load i64, ptr %13, align 8, !tbaa !35
  %95 = load i64, ptr @id_float_millisecond, align 8, !tbaa !35
  %96 = call i64 @rb_id2sym(i64 noundef %95)
  %97 = icmp eq i64 %94, %96
  br i1 %97, label %98, label %110

98:                                               ; preds = %93
  %99 = load ptr, ptr %9, align 8, !tbaa !294
  %100 = load i32, ptr %10, align 4, !tbaa !34
  %101 = add i32 %100, 1
  store i32 %101, ptr %10, align 4, !tbaa !34
  %102 = sext i32 %100 to i64
  %103 = getelementptr i64, ptr %99, i64 %102
  store i64 1000, ptr %103, align 8, !tbaa !203
  %104 = load ptr, ptr %8, align 8, !tbaa !292
  %105 = load ptr, ptr %9, align 8, !tbaa !294
  %106 = load i32, ptr %10, align 4, !tbaa !34
  %107 = load ptr, ptr %11, align 8, !tbaa !294
  %108 = load i32, ptr %12, align 4, !tbaa !34
  %109 = call i64 @timetick2dblnum(ptr noundef %104, ptr noundef %105, i32 noundef %106, ptr noundef %107, i32 noundef %108)
  store i64 %109, ptr %7, align 8
  br label %128

110:                                              ; preds = %93
  %111 = load i64, ptr %13, align 8, !tbaa !35
  %112 = call zeroext i1 @RB_NIL_P(i64 noundef %111) #28
  br i1 %112, label %118, label %113

113:                                              ; preds = %110
  %114 = load i64, ptr %13, align 8, !tbaa !35
  %115 = load i64, ptr @id_float_second, align 8, !tbaa !35
  %116 = call i64 @rb_id2sym(i64 noundef %115)
  %117 = icmp eq i64 %114, %116
  br i1 %117, label %118, label %125

118:                                              ; preds = %113, %110
  %119 = load ptr, ptr %8, align 8, !tbaa !292
  %120 = load ptr, ptr %9, align 8, !tbaa !294
  %121 = load i32, ptr %10, align 4, !tbaa !34
  %122 = load ptr, ptr %11, align 8, !tbaa !294
  %123 = load i32, ptr %12, align 4, !tbaa !34
  %124 = call i64 @timetick2dblnum(ptr noundef %119, ptr noundef %120, i32 noundef %121, ptr noundef %122, i32 noundef %123)
  store i64 %124, ptr %7, align 8
  br label %128

125:                                              ; preds = %113
  %126 = load i64, ptr @rb_eArgError, align 8, !tbaa !35
  %127 = load i64, ptr %13, align 8, !tbaa !35
  call void (i64, ptr, ...) @rb_raise(i64 noundef %126, ptr noundef @.str.256, i64 noundef %127) #30
  unreachable

128:                                              ; preds = %118, %98, %81, %69, %52, %35, %18
  %129 = load i64, ptr %7, align 8
  ret i64 %129
}