; Function Attrs: nounwind sspstrong uwtable
define internal fastcc i64 @make_clock_result(ptr noundef nonnull readonly captures(none) %0, ptr noundef nonnull captures(none) %1, ptr noundef nonnull captures(none) %2, i64 noundef %3) unnamed_addr #1 {
  %5 = load i64, ptr @id_nanosecond, align 8, !tbaa !43
  %6 = tail call i64 @rb_id2sym(i64 noundef %5) #27
  %7 = icmp eq i64 %3, %6
  br i1 %7, label %8, label %10

8:                                                ; preds = %4
  store i64 1000000000, ptr %1, align 8, !tbaa !266
  %9 = tail call fastcc i64 @timetick2integer(ptr noundef %0, ptr noundef %1, i32 noundef 1, ptr noundef %2)
  br label %timetick2dblnum.exit

10:                                               ; preds = %4
  %11 = load i64, ptr @id_microsecond, align 8, !tbaa !43
  %12 = tail call i64 @rb_id2sym(i64 noundef %11) #27
  %13 = icmp eq i64 %3, %12
  br i1 %13, label %14, label %16

14:                                               ; preds = %10
  store i64 1000000, ptr %1, align 8, !tbaa !266
  %15 = tail call fastcc i64 @timetick2integer(ptr noundef %0, ptr noundef %1, i32 noundef 1, ptr noundef %2)
  br label %timetick2dblnum.exit

16:                                               ; preds = %10
  %17 = load i64, ptr @id_millisecond, align 8, !tbaa !43
  %18 = tail call i64 @rb_id2sym(i64 noundef %17) #27
  %19 = icmp eq i64 %3, %18
  br i1 %19, label %20, label %22

20:                                               ; preds = %16
  store i64 1000, ptr %1, align 8, !tbaa !266
  %21 = tail call fastcc i64 @timetick2integer(ptr noundef %0, ptr noundef %1, i32 noundef 1, ptr noundef %2)
  br label %timetick2dblnum.exit

22:                                               ; preds = %16
  %23 = load i64, ptr @id_second, align 8, !tbaa !43
  %24 = tail call i64 @rb_id2sym(i64 noundef %23) #27
  %25 = icmp eq i64 %3, %24
  br i1 %25, label %26, label %28

26:                                               ; preds = %22
  %27 = tail call fastcc i64 @timetick2integer(ptr noundef %0, ptr noundef %1, i32 noundef 0, ptr noundef %2)
  br label %timetick2dblnum.exit

28:                                               ; preds = %22
  %29 = load i64, ptr @id_float_microsecond, align 8, !tbaa !43
  %30 = tail call i64 @rb_id2sym(i64 noundef %29) #27
  %31 = icmp eq i64 %3, %30
  br i1 %31, label %.lr.ph.split.preheader.i.i, label %76

.lr.ph.split.preheader.i.i:                       ; preds = %28
  store i64 1000000, ptr %1, align 8, !tbaa !266
  %32 = load i64, ptr %2, align 8, !tbaa !266
  %33 = icmp eq i64 %32, 1
  br i1 %33, label %reduce_factors.exit.thread.i, label %34

34:                                               ; preds = %.lr.ph.split.preheader.i.i
  %spec.select.i.i.i.i = tail call i64 @llvm.smax.i64(i64 %32, i64 1000000)
  %spec.select18.i.i.i.i = tail call i64 @llvm.smin.i64(i64 %32, i64 1000000)
  br label %35

35:                                               ; preds = %35, %34
  %.112.i.i.i.i = phi i64 [ %spec.select.i.i.i.i, %34 ], [ %.1.i.i.i.i, %35 ]
  %.1.i.i.i.i = phi i64 [ %spec.select18.i.i.i.i, %34 ], [ %36, %35 ]
  %36 = srem i64 %.112.i.i.i.i, %.1.i.i.i.i
  %37 = icmp eq i64 %36, 0
  br i1 %37, label %gcd_timetick_int.exit.i.i.i, label %35

gcd_timetick_int.exit.i.i.i:                      ; preds = %35
  %.not.i.i.i = icmp eq i64 %.1.i.i.i.i, 1
  br i1 %.not.i.i.i, label %reduce_factors.exit.i, label %38

38:                                               ; preds = %gcd_timetick_int.exit.i.i.i
  %39 = sdiv i64 1000000, %.1.i.i.i.i
  store i64 %39, ptr %1, align 8, !tbaa !266
  %40 = load i64, ptr %2, align 8, !tbaa !266
  %41 = sdiv i64 %40, %.1.i.i.i.i
  store i64 %41, ptr %2, align 8, !tbaa !266
  %.pre.pre = load i64, ptr %1, align 8, !tbaa !266
  %42 = sitofp i64 %.pre.pre to double
  br label %reduce_factors.exit.i

reduce_factors.exit.thread.i:                     ; preds = %.lr.ph.split.preheader.i.i
  %43 = load i64, ptr %0, align 8, !tbaa !261
  %44 = sitofp i64 %43 to double
  %45 = getelementptr inbounds nuw i8, ptr %0, i64 8
  %46 = load i32, ptr %45, align 8, !tbaa !265
  %47 = sitofp i32 %46 to double
  %48 = tail call double @llvm.fmuladd.f64(double %44, double 1.000000e+09, double %47)
  br label %.lr.ph.split.i

reduce_factors.exit.i:                            ; preds = %38, %gcd_timetick_int.exit.i.i.i
  %.pre = phi double [ %42, %38 ], [ 1.000000e+06, %gcd_timetick_int.exit.i.i.i ]
  %49 = phi i64 [ %41, %38 ], [ %32, %gcd_timetick_int.exit.i.i.i ]
  %50 = load i64, ptr %0, align 8, !tbaa !261
  %51 = sitofp i64 %50 to double
  %52 = getelementptr inbounds nuw i8, ptr %0, i64 8
  %53 = load i32, ptr %52, align 8, !tbaa !265
  %54 = sitofp i32 %53 to double
  %55 = tail call double @llvm.fmuladd.f64(double %51, double 1.000000e+09, double %54)
  %56 = sitofp i64 %49 to double
  br label %.lr.ph.split.i

.lr.ph.split.i:                                   ; preds = %reduce_factors.exit.i, %reduce_factors.exit.thread.i
  %57 = phi double [ 1.000000e+00, %reduce_factors.exit.thread.i ], [ %56, %reduce_factors.exit.i ]
  %58 = phi double [ 1.000000e+06, %reduce_factors.exit.thread.i ], [ %.pre, %reduce_factors.exit.i ]
  %59 = phi double [ %48, %reduce_factors.exit.thread.i ], [ %55, %reduce_factors.exit.i ]
  %60 = fmul double %59, %58
  %61 = fdiv double %60, %57
  %62 = bitcast double %61 to i64
  %cond.i.i = icmp eq i64 %62, 3458764513820540928
  br i1 %cond.i.i, label %74, label %63

63:                                               ; preds = %.lr.ph.split.i
  %64 = lshr i64 %62, 60
  %65 = trunc nuw nsw i64 %64 to i32
  %66 = and i32 %65, 7
  %67 = add nsw i32 %66, -3
  %.not7.i.i = icmp ult i32 %67, 2
  br i1 %.not7.i.i, label %68, label %72

68:                                               ; preds = %63
  %69 = tail call noundef i64 @llvm.fshl.i64(i64 range(i64 3458764513820540929, 3458764513820540928) %62, i64 range(i64 3458764513820540929, 3458764513820540928) %62, i64 3)
  %70 = and i64 %69, -4
  %71 = or disjoint i64 %70, 2
  br label %timetick2dblnum.exit

72:                                               ; preds = %63
  %73 = icmp eq i64 %62, 0
  br i1 %73, label %timetick2dblnum.exit, label %74

74:                                               ; preds = %72, %.lr.ph.split.i
  %75 = tail call i64 @rb_float_new_in_heap(double noundef %61) #27
  br label %timetick2dblnum.exit

76:                                               ; preds = %28
  %77 = load i64, ptr @id_float_millisecond, align 8, !tbaa !43
  %78 = tail call i64 @rb_id2sym(i64 noundef %77) #27
  %79 = icmp eq i64 %3, %78
  br i1 %79, label %80, label %82

80:                                               ; preds = %76
  store i64 1000, ptr %1, align 8, !tbaa !266
  %81 = tail call fastcc i64 @timetick2dblnum(ptr noundef %0, ptr noundef %1, i32 noundef 1, ptr noundef %2)
  br label %timetick2dblnum.exit

82:                                               ; preds = %76
  %83 = icmp eq i64 %3, 4
  br i1 %83, label %88, label %84

84:                                               ; preds = %82
  %85 = load i64, ptr @id_float_second, align 8, !tbaa !43
  %86 = tail call i64 @rb_id2sym(i64 noundef %85) #27
  %87 = icmp eq i64 %3, %86
  br i1 %87, label %88, label %90

88:                                               ; preds = %84, %82
  %89 = tail call fastcc i64 @timetick2dblnum(ptr noundef %0, ptr noundef %1, i32 noundef 0, ptr noundef %2)
  br label %timetick2dblnum.exit

90:                                               ; preds = %84
  %91 = load i64, ptr @rb_eArgError, align 8, !tbaa !43
  tail call void (i64, ptr, ...) @rb_raise(i64 noundef %91, ptr noundef nonnull @.str.256, i64 noundef %3) #29
  unreachable

timetick2dblnum.exit:                             ; preds = %74, %72, %68, %88, %80, %26, %20, %14, %8
  %.0 = phi i64 [ %9, %8 ], [ %15, %14 ], [ %21, %20 ], [ %27, %26 ], [ %81, %80 ], [ %89, %88 ], [ %75, %74 ], [ %71, %68 ], [ -9223372036854775806, %72 ]
  ret i64 %.0
}